; ModuleID = '60/1811.c'
source_filename = "60/1811.c"
target datalayout = "e-m:e-p270:32:32-p271:32:32-p272:64:64-i64:64-f80:128-n8:16:32:64-S128"
target triple = "x86_64-pc-linux-gnu"

@.str = private unnamed_addr constant [3 x i8] c"%d\00", align 1
@.str.1 = private unnamed_addr constant [7 x i8] c"empty\0A\00", align 1
@.str.2 = private unnamed_addr constant [7 x i8] c"%d %d\0A\00", align 1

; Function Attrs: noinline nounwind uwtable
define dso_local i32 @sushu(i32 %0) #0 {
  %2 = alloca i32, align 4
  %3 = alloca i32, align 4
  %4 = alloca i32, align 4
  store i32 %0, i32* %3, align 4
  store i32 2, i32* %4, align 4
  br label %5

5:                                                ; preds = %28, %1
  %6 = load i32, i32* %4, align 4
  %7 = load i32, i32* %3, align 4
  %8 = sub nsw i32 %7, 1
  %9 = icmp sle i32 %6, %8
  br i1 %9, label %10, label %31

10:                                               ; preds = %5
  %11 = load i32, i32* %3, align 4
  %12 = load i32, i32* %4, align 4
  %13 = srem i32 %11, %12
  %14 = icmp eq i32 %13, 0
  br i1 %14, label %15, label %16

15:                                               ; preds = %10
  store i32 0, i32* %2, align 4
  br label %31

16:                                               ; preds = %10
  %17 = load i32, i32* %4, align 4
  %18 = load i32, i32* %3, align 4
  %19 = sub nsw i32 %18, 1
  %20 = icmp eq i32 %17, %19
  br i1 %20, label %21, label %27

21:                                               ; preds = %16
  %22 = load i32, i32* %3, align 4
  %23 = load i32, i32* %4, align 4
  %24 = srem i32 %22, %23
  %25 = icmp ne i32 %24, 0
  br i1 %25, label %26, label %27

26:                                               ; preds = %21
  store i32 1, i32* %2, align 4
  br label %31

27:                                               ; preds = %21, %16
  br label %28

28:                                               ; preds = %27
  %29 = load i32, i32* %4, align 4
  %30 = add nsw i32 %29, 1
  store i32 %30, i32* %4, align 4
  br label %5

31:                                               ; preds = %15, %26, %5
  %32 = load i32, i32* %2, align 4
  ret i32 %32
}

; Function Attrs: noinline nounwind uwtable
define dso_local i32 @main() #0 {
  %1 = alloca i32, align 4
  %2 = alloca i32, align 4
  %3 = alloca i32, align 4
  %4 = alloca i32, align 4
  %5 = alloca i32, align 4
  store i32 0, i32* %1, align 4
  store i32 3, i32* %4, align 4
  %6 = call i32 (i8*, ...) @__isoc99_scanf(i8* getelementptr inbounds ([3 x i8], [3 x i8]* @.str, i64 0, i64 0), i32* %2)
  %7 = load i32, i32* %2, align 4
  %8 = icmp slt i32 %7, 5
  br i1 %8, label %9, label %11

9:                                                ; preds = %0
  %10 = call i32 (i8*, ...) @printf(i8* getelementptr inbounds ([7 x i8], [7 x i8]* @.str.1, i64 0, i64 0))
  br label %37

11:                                               ; preds = %0
  store i32 5, i32* %3, align 4
  br label %12

12:                                               ; preds = %33, %11
  %13 = load i32, i32* %3, align 4
  %14 = load i32, i32* %2, align 4
  %15 = icmp sle i32 %13, %14
  br i1 %15, label %16, label %36

16:                                               ; preds = %12
  %17 = load i32, i32* %3, align 4
  %18 = call i32 @sushu(i32 %17)
  %19 = icmp eq i32 %18, 1
  br i1 %19, label %20, label %32

20:                                               ; preds = %16
  %21 = load i32, i32* %3, align 4
  store i32 %21, i32* %5, align 4
  %22 = load i32, i32* %5, align 4
  %23 = load i32, i32* %4, align 4
  %24 = sub nsw i32 %22, %23
  %25 = icmp eq i32 %24, 2
  br i1 %25, label %26, label %30

26:                                               ; preds = %20
  %27 = load i32, i32* %4, align 4
  %28 = load i32, i32* %5, align 4
  %29 = call i32 (i8*, ...) @printf(i8* getelementptr inbounds ([7 x i8], [7 x i8]* @.str.2, i64 0, i64 0), i32 %27, i32 %28)
  br label %30

30:                                               ; preds = %26, %20
  %31 = load i32, i32* %5, align 4
  store i32 %31, i32* %4, align 4
  br label %32

32:                                               ; preds = %30, %16
  br label %33

33:                                               ; preds = %32
  %34 = load i32, i32* %3, align 4
  %35 = add nsw i32 %34, 2
  store i32 %35, i32* %3, align 4
  br label %12

36:                                               ; preds = %12
  br label %37

37:                                               ; preds = %36, %9
  ret i32 0
}

declare dso_local i32 @__isoc99_scanf(i8*, ...) #1

declare dso_local i32 @printf(i8*, ...) #1


!llvm.module.flags = !{!0}
!llvm.ident = !{!1}

!0 = !{i32 1, !"wchar_size", i32 4}
!1 = !{!"clang version 10.0.0-4ubuntu1 "}
